; ModuleID = '14/1242.c'
source_filename = "14/1242.c"
target datalayout = "e-m:e-p270:32:32-p271:32:32-p272:64:64-i64:64-f80:128-n8:16:32:64-S128"
target triple = "x86_64-pc-linux-gnu"

%struct.stu = type { i32, i32, i32 }

@.str = private unnamed_addr constant [3 x i8] c"%d\00", align 1
@.str.1 = private unnamed_addr constant [7 x i8] c"%d%d%d\00", align 1
@.str.2 = private unnamed_addr constant [18 x i8] c"%d %d\0A%d %d\0A%d %d\00", align 1

; Function Attrs: noinline nounwind uwtable
define dso_local i32 @main(i32 %0, i8** %1) #0 {
  %3 = alloca i32, align 4
  %4 = alloca i32, align 4
  %5 = alloca i8**, align 8
  %6 = alloca i32, align 4
  %7 = alloca [100000 x %struct.stu], align 16
  %8 = alloca i32, align 4
  %9 = alloca i32, align 4
  %10 = alloca i32, align 4
  %11 = alloca i32, align 4
  %12 = alloca i32, align 4
  %13 = alloca i32, align 4
  %14 = alloca i32, align 4
  store i32 0, i32* %3, align 4
  store i32 %0, i32* %4, align 4
  store i8** %1, i8*** %5, align 8
  %15 = call i32 (i8*, ...) @__isoc99_scanf(i8* getelementptr inbounds ([3 x i8], [3 x i8]* @.str, i64 0, i64 0), i32* %6)
  store i32 0, i32* %8, align 4
  store i32 0, i32* %9, align 4
  store i32 0, i32* %10, align 4
  store i32 0, i32* %11, align 4
  br label %16

16:                                               ; preds = %34, %2
  %17 = load i32, i32* %11, align 4
  %18 = load i32, i32* %6, align 4
  %19 = icmp slt i32 %17, %18
  br i1 %19, label %20, label %37

20:                                               ; preds = %16
  %21 = load i32, i32* %11, align 4
  %22 = sext i32 %21 to i64
  %23 = getelementptr inbounds [100000 x %struct.stu], [100000 x %struct.stu]* %7, i64 0, i64 %22
  %24 = getelementptr inbounds %struct.stu, %struct.stu* %23, i32 0, i32 0
  %25 = load i32, i32* %11, align 4
  %26 = sext i32 %25 to i64
  %27 = getelementptr inbounds [100000 x %struct.stu], [100000 x %struct.stu]* %7, i64 0, i64 %26
  %28 = getelementptr inbounds %struct.stu, %struct.stu* %27, i32 0, i32 1
  %29 = load i32, i32* %11, align 4
  %30 = sext i32 %29 to i64
  %31 = getelementptr inbounds [100000 x %struct.stu], [100000 x %struct.stu]* %7, i64 0, i64 %30
  %32 = getelementptr inbounds %struct.stu, %struct.stu* %31, i32 0, i32 2
  %33 = call i32 (i8*, ...) @__isoc99_scanf(i8* getelementptr inbounds ([7 x i8], [7 x i8]* @.str.1, i64 0, i64 0), i32* %24, i32* %28, i32* %32)
  br label %34

34:                                               ; preds = %20
  %35 = load i32, i32* %11, align 4
  %36 = add nsw i32 %35, 1
  store i32 %36, i32* %11, align 4
  br label %16

37:                                               ; preds = %16
  store i32 0, i32* %11, align 4
  br label %38

38:                                               ; preds = %130, %37
  %39 = load i32, i32* %11, align 4
  %40 = load i32, i32* %6, align 4
  %41 = icmp slt i32 %39, %40
  br i1 %41, label %42, label %133

42:                                               ; preds = %38
  %43 = load i32, i32* %11, align 4
  %44 = sext i32 %43 to i64
  %45 = getelementptr inbounds [100000 x %struct.stu], [100000 x %struct.stu]* %7, i64 0, i64 %44
  %46 = getelementptr inbounds %struct.stu, %struct.stu* %45, i32 0, i32 1
  %47 = load i32, i32* %46, align 4
  %48 = load i32, i32* %11, align 4
  %49 = sext i32 %48 to i64
  %50 = getelementptr inbounds [100000 x %struct.stu], [100000 x %struct.stu]* %7, i64 0, i64 %49
  %51 = getelementptr inbounds %struct.stu, %struct.stu* %50, i32 0, i32 2
  %52 = load i32, i32* %51, align 4
  %53 = add nsw i32 %47, %52
  %54 = load i32, i32* %8, align 4
  %55 = icmp sgt i32 %53, %54
  br i1 %55, label %56, label %71

56:                                               ; preds = %42
  %57 = load i32, i32* %8, align 4
  store i32 %57, i32* %9, align 4
  %58 = load i32, i32* %11, align 4
  %59 = sext i32 %58 to i64
  %60 = getelementptr inbounds [100000 x %struct.stu], [100000 x %struct.stu]* %7, i64 0, i64 %59
  %61 = getelementptr inbounds %struct.stu, %struct.stu* %60, i32 0, i32 1
  %62 = load i32, i32* %61, align 4
  %63 = load i32, i32* %11, align 4
  %64 = sext i32 %63 to i64
  %65 = getelementptr inbounds [100000 x %struct.stu], [100000 x %struct.stu]* %7, i64 0, i64 %64
  %66 = getelementptr inbounds %struct.stu, %struct.stu* %65, i32 0, i32 2
  %67 = load i32, i32* %66, align 4
  %68 = add nsw i32 %62, %67
  store i32 %68, i32* %8, align 4
  %69 = load i32, i32* %12, align 4
  store i32 %69, i32* %13, align 4
  %70 = load i32, i32* %11, align 4
  store i32 %70, i32* %12, align 4
  br label %129

71:                                               ; preds = %42
  %72 = load i32, i32* %11, align 4
  %73 = sext i32 %72 to i64
  %74 = getelementptr inbounds [100000 x %struct.stu], [100000 x %struct.stu]* %7, i64 0, i64 %73
  %75 = getelementptr inbounds %struct.stu, %struct.stu* %74, i32 0, i32 1
  %76 = load i32, i32* %75, align 4
  %77 = load i32, i32* %11, align 4
  %78 = sext i32 %77 to i64
  %79 = getelementptr inbounds [100000 x %struct.stu], [100000 x %struct.stu]* %7, i64 0, i64 %78
  %80 = getelementptr inbounds %struct.stu, %struct.stu* %79, i32 0, i32 2
  %81 = load i32, i32* %80, align 4
  %82 = add nsw i32 %76, %81
  %83 = load i32, i32* %9, align 4
  %84 = icmp sgt i32 %82, %83
  br i1 %84, label %85, label %100

85:                                               ; preds = %71
  %86 = load i32, i32* %9, align 4
  store i32 %86, i32* %10, align 4
  %87 = load i32, i32* %11, align 4
  %88 = sext i32 %87 to i64
  %89 = getelementptr inbounds [100000 x %struct.stu], [100000 x %struct.stu]* %7, i64 0, i64 %88
  %90 = getelementptr inbounds %struct.stu, %struct.stu* %89, i32 0, i32 1
  %91 = load i32, i32* %90, align 4
  %92 = load i32, i32* %11, align 4
  %93 = sext i32 %92 to i64
  %94 = getelementptr inbounds [100000 x %struct.stu], [100000 x %struct.stu]* %7, i64 0, i64 %93
  %95 = getelementptr inbounds %struct.stu, %struct.stu* %94, i32 0, i32 2
  %96 = load i32, i32* %95, align 4
  %97 = add nsw i32 %91, %96
  store i32 %97, i32* %9, align 4
  %98 = load i32, i32* %13, align 4
  store i32 %98, i32* %14, align 4
  %99 = load i32, i32* %11, align 4
  store i32 %99, i32* %13, align 4
  br label %128

100:                                              ; preds = %71
  %101 = load i32, i32* %11, align 4
  %102 = sext i32 %101 to i64
  %103 = getelementptr inbounds [100000 x %struct.stu], [100000 x %struct.stu]* %7, i64 0, i64 %102
  %104 = getelementptr inbounds %struct.stu, %struct.stu* %103, i32 0, i32 1
  %105 = load i32, i32* %104, align 4
  %106 = load i32, i32* %11, align 4
  %107 = sext i32 %106 to i64
  %108 = getelementptr inbounds [100000 x %struct.stu], [100000 x %struct.stu]* %7, i64 0, i64 %107
  %109 = getelementptr inbounds %struct.stu, %struct.stu* %108, i32 0, i32 2
  %110 = load i32, i32* %109, align 4
  %111 = add nsw i32 %105, %110
  %112 = load i32, i32* %10, align 4
  %113 = icmp sgt i32 %111, %112
  br i1 %113, label %114, label %127

114:                                              ; preds = %100
  %115 = load i32, i32* %11, align 4
  %116 = sext i32 %115 to i64
  %117 = getelementptr inbounds [100000 x %struct.stu], [100000 x %struct.stu]* %7, i64 0, i64 %116
  %118 = getelementptr inbounds %struct.stu, %struct.stu* %117, i32 0, i32 1
  %119 = load i32, i32* %118, align 4
  %120 = load i32, i32* %11, align 4
  %121 = sext i32 %120 to i64
  %122 = getelementptr inbounds [100000 x %struct.stu], [100000 x %struct.stu]* %7, i64 0, i64 %121
  %123 = getelementptr inbounds %struct.stu, %struct.stu* %122, i32 0, i32 2
  %124 = load i32, i32* %123, align 4
  %125 = add nsw i32 %119, %124
  store i32 %125, i32* %10, align 4
  %126 = load i32, i32* %11, align 4
  store i32 %126, i32* %14, align 4
  br label %127

127:                                              ; preds = %114, %100
  br label %128

128:                                              ; preds = %127, %85
  br label %129

129:                                              ; preds = %128, %56
  br label %130

130:                                              ; preds = %129
  %131 = load i32, i32* %11, align 4
  %132 = add nsw i32 %131, 1
  store i32 %132, i32* %11, align 4
  br label %38

133:                                              ; preds = %38
  %134 = load i32, i32* %12, align 4
  %135 = sext i32 %134 to i64
  %136 = getelementptr inbounds [100000 x %struct.stu], [100000 x %struct.stu]* %7, i64 0, i64 %135
  %137 = getelementptr inbounds %struct.stu, %struct.stu* %136, i32 0, i32 0
  %138 = load i32, i32* %137, align 4
  %139 = load i32, i32* %12, align 4
  %140 = sext i32 %139 to i64
  %141 = getelementptr inbounds [100000 x %struct.stu], [100000 x %struct.stu]* %7, i64 0, i64 %140
  %142 = getelementptr inbounds %struct.stu, %struct.stu* %141, i32 0, i32 1
  %143 = load i32, i32* %142, align 4
  %144 = load i32, i32* %12, align 4
  %145 = sext i32 %144 to i64
  %146 = getelementptr inbounds [100000 x %struct.stu], [100000 x %struct.stu]* %7, i64 0, i64 %145
  %147 = getelementptr inbounds %struct.stu, %struct.stu* %146, i32 0, i32 2
  %148 = load i32, i32* %147, align 4
  %149 = add nsw i32 %143, %148
  %150 = load i32, i32* %13, align 4
  %151 = sext i32 %150 to i64
  %152 = getelementptr inbounds [100000 x %struct.stu], [100000 x %struct.stu]* %7, i64 0, i64 %151
  %153 = getelementptr inbounds %struct.stu, %struct.stu* %152, i32 0, i32 0
  %154 = load i32, i32* %153, align 4
  %155 = load i32, i32* %13, align 4
  %156 = sext i32 %155 to i64
  %157 = getelementptr inbounds [100000 x %struct.stu], [100000 x %struct.stu]* %7, i64 0, i64 %156
  %158 = getelementptr inbounds %struct.stu, %struct.stu* %157, i32 0, i32 1
  %159 = load i32, i32* %158, align 4
  %160 = load i32, i32* %13, align 4
  %161 = sext i32 %160 to i64
  %162 = getelementptr inbounds [100000 x %struct.stu], [100000 x %struct.stu]* %7, i64 0, i64 %161
  %163 = getelementptr inbounds %struct.stu, %struct.stu* %162, i32 0, i32 2
  %164 = load i32, i32* %163, align 4
  %165 = add nsw i32 %159, %164
  %166 = load i32, i32* %14, align 4
  %167 = sext i32 %166 to i64
  %168 = getelementptr inbounds [100000 x %struct.stu], [100000 x %struct.stu]* %7, i64 0, i64 %167
  %169 = getelementptr inbounds %struct.stu, %struct.stu* %168, i32 0, i32 0
  %170 = load i32, i32* %169, align 4
  %171 = load i32, i32* %14, align 4
  %172 = sext i32 %171 to i64
  %173 = getelementptr inbounds [100000 x %struct.stu], [100000 x %struct.stu]* %7, i64 0, i64 %172
  %174 = getelementptr inbounds %struct.stu, %struct.stu* %173, i32 0, i32 1
  %175 = load i32, i32* %174, align 4
  %176 = load i32, i32* %14, align 4
  %177 = sext i32 %176 to i64
  %178 = getelementptr inbounds [100000 x %struct.stu], [100000 x %struct.stu]* %7, i64 0, i64 %177
  %179 = getelementptr inbounds %struct.stu, %struct.stu* %178, i32 0, i32 2
  %180 = load i32, i32* %179, align 4
  %181 = add nsw i32 %175, %180
  %182 = call i32 (i8*, ...) @printf(i8* getelementptr inbounds ([18 x i8], [18 x i8]* @.str.2, i64 0, i64 0), i32 %138, i32 %149, i32 %154, i32 %165, i32 %170, i32 %181)
  ret i32 0
}

declare dso_local i32 @__isoc99_scanf(i8*, ...) #1

declare dso_local i32 @printf(i8*, ...) #1


!llvm.module.flags = !{!0}
!llvm.ident = !{!1}

!0 = !{i32 1, !"wchar_size", i32 4}
!1 = !{!"clang version 10.0.0-4ubuntu1 "}
